target datalayout = "e-m:e-p270:32:32-p271:32:32-p272:64:64-i64:64-i128:128-f80:128-n8:16:32:64-S128"
target triple = "x86_64-pc-linux-gnu"

%"struct.rocksdb::CompactionJobStats" = type { i64, i64, i8, i64, i64, i64, i64, i64, i64, i64, i64, i64, i8, i8, i8, i64, i64, i64, i64, i64, i64, i64, i64, i64, i64, i64, i64, i64, i64, i64, %"class.std::__cxx11::basic_string", %"class.std::__cxx11::basic_string", i64, i64 }
%"class.std::__cxx11::basic_string" = type { %"struct.std::__cxx11::basic_string<char>::_Alloc_hider", i64, %union.anon }
%"struct.std::__cxx11::basic_string<char>::_Alloc_hider" = type { ptr }
%union.anon = type { i64, [8 x i8] }

; Function Attrs: mustprogress nounwind uwtable
define linkonce_odr void @_ZNSt11char_traitsIcE6assignERcRKc(ptr noundef nonnull align 1 dereferenceable(1) %0, ptr noundef nonnull align 1 dereferenceable(1) %1) #0 comdat align 2 {
  %3 = alloca ptr, align 8
  %4 = alloca ptr, align 8
  store ptr %0, ptr %3, align 8, !tbaa !54
  store ptr %1, ptr %4, align 8, !tbaa !54
  %5 = load ptr, ptr %4, align 8, !tbaa !54
  %6 = load i8, ptr %5, align 1, !tbaa !52
  %7 = load ptr, ptr %3, align 8, !tbaa !54
  store i8 %6, ptr %7, align 1, !tbaa !52
  ret void
}

; Function Attrs: mustprogress nounwind uwtable
define available_externally noundef ptr @_ZNKSt7__cxx1112basic_stringIcSt11char_traitsIcESaIcEE7_M_dataEv(ptr noundef nonnull align 8 dereferenceable(32) %0) #0 align 2 {
  %2 = alloca ptr, align 8
  store ptr %0, ptr %2, align 8, !tbaa !47
  %3 = load ptr, ptr %2, align 8
  %4 = getelementptr inbounds nuw %"class.std::__cxx11::basic_string", ptr %3, i32 0, i32 0
  %5 = getelementptr inbounds nuw %"struct.std::__cxx11::basic_string<char>::_Alloc_hider", ptr %4, i32 0, i32 0
  %6 = load ptr, ptr %5, align 8, !tbaa !55
  ret ptr %6
}

; Function Attrs: mustprogress nounwind uwtable
define available_externally void @_ZNSt7__cxx1112basic_stringIcSt11char_traitsIcESaIcEE9_M_lengthEm(ptr noundef nonnull align 8 dereferenceable(32) %0, i64 noundef %1) #0 align 2 {
  %3 = alloca ptr, align 8
  %4 = alloca i64, align 8
  store ptr %0, ptr %3, align 8, !tbaa !47
  store i64 %1, ptr %4, align 8, !tbaa !51
  %5 = load ptr, ptr %3, align 8
  %6 = load i64, ptr %4, align 8, !tbaa !51
  %7 = getelementptr inbounds nuw %"class.std::__cxx11::basic_string", ptr %5, i32 0, i32 1
  store i64 %6, ptr %7, align 8, !tbaa !53
  ret void
}

; Function Attrs: noinline noreturn nounwind uwtable
define linkonce_odr hidden void @__clang_call_terminate(ptr noundef %0) #2 comdat {
  %2 = call ptr @__cxa_begin_catch(ptr %0) #4
  call void @_ZSt9terminatev() #5
  unreachable
}

; Function Attrs: mustprogress uwtable
define available_externally void @_ZNSt7__cxx1112basic_stringIcSt11char_traitsIcESaIcEE13_M_set_lengthEm(ptr noundef nonnull align 8 dereferenceable(32) %0, i64 noundef %1) #1 align 2 {
  %3 = alloca ptr, align 8
  %4 = alloca i64, align 8
  %5 = alloca i8, align 1
  store ptr %0, ptr %3, align 8, !tbaa !47
  store i64 %1, ptr %4, align 8, !tbaa !51
  %6 = load ptr, ptr %3, align 8
  %7 = load i64, ptr %4, align 8, !tbaa !51
  call void @_ZNSt7__cxx1112basic_stringIcSt11char_traitsIcESaIcEE9_M_lengthEm(ptr noundef nonnull align 8 dereferenceable(32) %6, i64 noundef %7)
  %8 = call noundef ptr @_ZNKSt7__cxx1112basic_stringIcSt11char_traitsIcESaIcEE7_M_dataEv(ptr noundef nonnull align 8 dereferenceable(32) %6)
  %9 = load i64, ptr %4, align 8, !tbaa !51
  %10 = getelementptr inbounds nuw i8, ptr %8, i64 %9
  call void @llvm.lifetime.start.p0(i64 1, ptr %5) #4
  store i8 0, ptr %5, align 1, !tbaa !52
  call void @_ZNSt11char_traitsIcE6assignERcRKc(ptr noundef nonnull align 1 dereferenceable(1) %10, ptr noundef nonnull align 1 dereferenceable(1) %5) #4
  call void @llvm.lifetime.end.p0(i64 1, ptr %5) #4
  ret void
}

; Function Attrs: mustprogress nounwind uwtable
define available_externally void @_ZNSt7__cxx1112basic_stringIcSt11char_traitsIcESaIcEE5clearEv(ptr noundef nonnull align 8 dereferenceable(32) %0) #0 align 2 personality ptr @__gxx_personality_v0 {
  %2 = alloca ptr, align 8
  store ptr %0, ptr %2, align 8, !tbaa !47
  %3 = load ptr, ptr %2, align 8
  invoke void @_ZNSt7__cxx1112basic_stringIcSt11char_traitsIcESaIcEE13_M_set_lengthEm(ptr noundef nonnull align 8 dereferenceable(32) %3, i64 noundef 0)
          to label %4 unwind label %5

4:                                                ; preds = %1
  ret void

5:                                                ; preds = %1
  %6 = landingpad { ptr, i32 }
          catch ptr null
  %7 = extractvalue { ptr, i32 } %6, 0
  call void @__clang_call_terminate(ptr %7) #5
  unreachable
}

; Function Attrs: mustprogress nounwind uwtable
define void @_ZN7rocksdb18CompactionJobStats5ResetEv(ptr noundef nonnull align 8 dereferenceable(304) %0) #0 align 2 {
  %2 = alloca ptr, align 8
  store ptr %0, ptr %2, align 8, !tbaa !4
  %3 = load ptr, ptr %2, align 8
  %4 = getelementptr inbounds nuw %"struct.rocksdb::CompactionJobStats", ptr %3, i32 0, i32 0
  store i64 0, ptr %4, align 8, !tbaa !9
  %5 = getelementptr inbounds nuw %"struct.rocksdb::CompactionJobStats", ptr %3, i32 0, i32 1
  store i64 0, ptr %5, align 8, !tbaa !16
  %6 = getelementptr inbounds nuw %"struct.rocksdb::CompactionJobStats", ptr %3, i32 0, i32 2
  store i8 1, ptr %6, align 8, !tbaa !17
  %7 = getelementptr inbounds nuw %"struct.rocksdb::CompactionJobStats", ptr %3, i32 0, i32 3
  store i64 0, ptr %7, align 8, !tbaa !18
  %8 = getelementptr inbounds nuw %"struct.rocksdb::CompactionJobStats", ptr %3, i32 0, i32 4
  store i64 0, ptr %8, align 8, !tbaa !19
  %9 = getelementptr inbounds nuw %"struct.rocksdb::CompactionJobStats", ptr %3, i32 0, i32 5
  store i64 0, ptr %9, align 8, !tbaa !20
  %10 = getelementptr inbounds nuw %"struct.rocksdb::CompactionJobStats", ptr %3, i32 0, i32 6
  store i64 0, ptr %10, align 8, !tbaa !21
  %11 = getelementptr inbounds nuw %"struct.rocksdb::CompactionJobStats", ptr %3, i32 0, i32 7
  store i64 0, ptr %11, align 8, !tbaa !22
  %12 = getelementptr inbounds nuw %"struct.rocksdb::CompactionJobStats", ptr %3, i32 0, i32 8
  store i64 0, ptr %12, align 8, !tbaa !23
  %13 = getelementptr inbounds nuw %"struct.rocksdb::CompactionJobStats", ptr %3, i32 0, i32 9
  store i64 0, ptr %13, align 8, !tbaa !24
  %14 = getelementptr inbounds nuw %"struct.rocksdb::CompactionJobStats", ptr %3, i32 0, i32 10
  store i64 0, ptr %14, align 8, !tbaa !25
  %15 = getelementptr inbounds nuw %"struct.rocksdb::CompactionJobStats", ptr %3, i32 0, i32 11
  store i64 0, ptr %15, align 8, !tbaa !26
  %16 = getelementptr inbounds nuw %"struct.rocksdb::CompactionJobStats", ptr %3, i32 0, i32 12
  store i8 0, ptr %16, align 8, !tbaa !27
  %17 = getelementptr inbounds nuw %"struct.rocksdb::CompactionJobStats", ptr %3, i32 0, i32 13
  store i8 0, ptr %17, align 1, !tbaa !28
  %18 = getelementptr inbounds nuw %"struct.rocksdb::CompactionJobStats", ptr %3, i32 0, i32 14
  store i8 0, ptr %18, align 2, !tbaa !29
  %19 = getelementptr inbounds nuw %"struct.rocksdb::CompactionJobStats", ptr %3, i32 0, i32 15
  store i64 0, ptr %19, align 8, !tbaa !30
  %20 = getelementptr inbounds nuw %"struct.rocksdb::CompactionJobStats", ptr %3, i32 0, i32 16
  store i64 0, ptr %20, align 8, !tbaa !31
  %21 = getelementptr inbounds nuw %"struct.rocksdb::CompactionJobStats", ptr %3, i32 0, i32 17
  store i64 0, ptr %21, align 8, !tbaa !32
  %22 = getelementptr inbounds nuw %"struct.rocksdb::CompactionJobStats", ptr %3, i32 0, i32 18
  store i64 0, ptr %22, align 8, !tbaa !33
  %23 = getelementptr inbounds nuw %"struct.rocksdb::CompactionJobStats", ptr %3, i32 0, i32 19
  store i64 0, ptr %23, align 8, !tbaa !34
  %24 = getelementptr inbounds nuw %"struct.rocksdb::CompactionJobStats", ptr %3, i32 0, i32 20
  store i64 0, ptr %24, align 8, !tbaa !35
  %25 = getelementptr inbounds nuw %"struct.rocksdb::CompactionJobStats", ptr %3, i32 0, i32 21
  store i64 0, ptr %25, align 8, !tbaa !36
  %26 = getelementptr inbounds nuw %"struct.rocksdb::CompactionJobStats", ptr %3, i32 0, i32 22
  store i64 0, ptr %26, align 8, !tbaa !37
  %27 = getelementptr inbounds nuw %"struct.rocksdb::CompactionJobStats", ptr %3, i32 0, i32 23
  store i64 0, ptr %27, align 8, !tbaa !38
  %28 = getelementptr inbounds nuw %"struct.rocksdb::CompactionJobStats", ptr %3, i32 0, i32 24
  store i64 0, ptr %28, align 8, !tbaa !39
  %29 = getelementptr inbounds nuw %"struct.rocksdb::CompactionJobStats", ptr %3, i32 0, i32 25
  store i64 0, ptr %29, align 8, !tbaa !40
  %30 = getelementptr inbounds nuw %"struct.rocksdb::CompactionJobStats", ptr %3, i32 0, i32 26
  store i64 0, ptr %30, align 8, !tbaa !41
  %31 = getelementptr inbounds nuw %"struct.rocksdb::CompactionJobStats", ptr %3, i32 0, i32 27
  store i64 0, ptr %31, align 8, !tbaa !42
  %32 = getelementptr inbounds nuw %"struct.rocksdb::CompactionJobStats", ptr %3, i32 0, i32 28
  store i64 0, ptr %32, align 8, !tbaa !43
  %33 = getelementptr inbounds nuw %"struct.rocksdb::CompactionJobStats", ptr %3, i32 0, i32 29
  store i64 0, ptr %33, align 8, !tbaa !44
  %34 = getelementptr inbounds nuw %"struct.rocksdb::CompactionJobStats", ptr %3, i32 0, i32 30
  call void @_ZNSt7__cxx1112basic_stringIcSt11char_traitsIcESaIcEE5clearEv(ptr noundef nonnull align 8 dereferenceable(32) %34) #4
  %35 = getelementptr inbounds nuw %"struct.rocksdb::CompactionJobStats", ptr %3, i32 0, i32 31
  call void @_ZNSt7__cxx1112basic_stringIcSt11char_traitsIcESaIcEE5clearEv(ptr noundef nonnull align 8 dereferenceable(32) %35) #4
  %36 = getelementptr inbounds nuw %"struct.rocksdb::CompactionJobStats", ptr %3, i32 0, i32 32
  store i64 0, ptr %36, align 8, !tbaa !45
  %37 = getelementptr inbounds nuw %"struct.rocksdb::CompactionJobStats", ptr %3, i32 0, i32 33
  store i64 0, ptr %37, align 8, !tbaa !46
  ret void
}