; Function Attrs: mustprogress nofree norecurse nosync nounwind willreturn memory(write, argmem: readwrite, inaccessiblemem: none) uwtable
define void @_ZN7rocksdb18CompactionJobStats5ResetEv(ptr noundef nonnull align 8 captures(none) dereferenceable(304) initializes((0, 17), (24, 99), (104, 224), (232, 240), (264, 272), (288, 304)) %0) local_unnamed_addr #0 align 2 personality ptr @__gxx_personality_v0 {
  %2 = getelementptr inbounds nuw i8, ptr %0, i64 16
  tail call void @llvm.memset.p0.i64(ptr noundef nonnull align 8 dereferenceable(16) %0, i8 0, i64 16, i1 false)
  store i8 1, ptr %2, align 8, !tbaa !4
  %3 = getelementptr inbounds nuw i8, ptr %0, i64 24
  %4 = getelementptr inbounds nuw i8, ptr %0, i64 104
  %5 = getelementptr inbounds nuw i8, ptr %0, i64 224
  %6 = getelementptr inbounds nuw i8, ptr %0, i64 232
  store i64 0, ptr %6, align 8, !tbaa !14
  tail call void @llvm.memset.p0.i64(ptr noundef nonnull align 8 dereferenceable(75) %3, i8 0, i64 75, i1 false)
  tail call void @llvm.memset.p0.i64(ptr noundef nonnull align 8 dereferenceable(120) %4, i8 0, i64 120, i1 false)
  %7 = load ptr, ptr %5, align 8, !tbaa !15
  store i8 0, ptr %7, align 1, !tbaa !16
  %8 = getelementptr inbounds nuw i8, ptr %0, i64 256
  %9 = getelementptr inbounds nuw i8, ptr %0, i64 264
  store i64 0, ptr %9, align 8, !tbaa !14
  %10 = load ptr, ptr %8, align 8, !tbaa !15
  store i8 0, ptr %10, align 1, !tbaa !16
  %11 = getelementptr inbounds nuw i8, ptr %0, i64 288
  tail call void @llvm.memset.p0.i64(ptr noundef nonnull align 8 dereferenceable(16) %11, i8 0, i64 16, i1 false)
  ret void
}